; Function Attrs: mustprogress uwtable
define internal void @_ZNK12_GLOBAL__N_116itanium_demangle11PostfixExpr9printLeftERNS0_12OutputBufferE(ptr noundef nonnull readonly align 8 captures(none) dereferenceable(40) %0, ptr noundef nonnull align 8 dereferenceable(44) %1) unnamed_addr #2 align 2 {
  %3 = getelementptr inbounds nuw i8, ptr %0, i64 16
  %4 = load ptr, ptr %3, align 8, !tbaa !363
  %5 = getelementptr inbounds nuw i8, ptr %0, i64 9
  %.val = load i16, ptr %5, align 1
  %6 = trunc i16 %.val to i8
  %7 = and i8 %6, 63
  tail call fastcc void @_ZNK12_GLOBAL__N_116itanium_demangle4Node14printAsOperandERNS0_12OutputBufferENS1_4PrecEb(ptr noundef nonnull align 8 dereferenceable(11) %4, ptr noundef nonnull align 8 dereferenceable(44) %1, i8 noundef zeroext %7, i1 noundef zeroext true)
  %8 = getelementptr inbounds nuw i8, ptr %0, i64 24
  %.sroa.0.0.copyload = load ptr, ptr %8, align 8, !tbaa !219
  %.sroa.2.0..sroa_idx = getelementptr inbounds nuw i8, ptr %0, i64 32
  %.sroa.2.0.copyload = load i64, ptr %.sroa.2.0..sroa_idx, align 8, !tbaa !220
  %.not.i = icmp eq i64 %.sroa.2.0.copyload, 0
  br i1 %.not.i, label %_ZN12_GLOBAL__N_116itanium_demangle12OutputBufferpLENSt3__117basic_string_viewIcNS2_11char_traitsIcEEEE.exit, label %9

9:                                                ; preds = %2
  %10 = getelementptr inbounds nuw i8, ptr %1, i64 16
  %11 = load i64, ptr %10, align 8, !tbaa !224
  %12 = add i64 %11, %.sroa.2.0.copyload
  %13 = getelementptr inbounds nuw i8, ptr %1, i64 24
  %14 = load i64, ptr %13, align 8, !tbaa !225
  %15 = icmp ugt i64 %12, %14
  br i1 %15, label %16, label %._ZN12_GLOBAL__N_116itanium_demangle12OutputBuffer4growEm.exit_crit_edge.i

._ZN12_GLOBAL__N_116itanium_demangle12OutputBuffer4growEm.exit_crit_edge.i: ; preds = %9
  %.phi.trans.insert.i = getelementptr inbounds nuw i8, ptr %1, i64 8
  %.pre.i = load ptr, ptr %.phi.trans.insert.i, align 8, !tbaa !222
  br label %_ZN12_GLOBAL__N_116itanium_demangle12OutputBuffer4growEm.exit.i

16:                                               ; preds = %9
  %17 = add i64 %12, 992
  %18 = shl i64 %14, 1
  %spec.select.i.i = tail call i64 @llvm.umax.i64(i64 %18, i64 %17)
  store i64 %spec.select.i.i, ptr %13, align 8, !tbaa !225
  %19 = getelementptr inbounds nuw i8, ptr %1, i64 8
  %20 = load ptr, ptr %19, align 8, !tbaa !222
  %21 = tail call ptr @realloc(ptr noundef %20, i64 noundef %spec.select.i.i) #34
  store ptr %21, ptr %19, align 8, !tbaa !222
  %22 = icmp eq ptr %21, null
  br i1 %22, label %23, label %._ZN12_GLOBAL__N_116itanium_demangle12OutputBuffer4growEm.exit_crit_edge4.i

._ZN12_GLOBAL__N_116itanium_demangle12OutputBuffer4growEm.exit_crit_edge4.i: ; preds = %16
  %.pre5.i = load i64, ptr %10, align 8, !tbaa !224
  br label %_ZN12_GLOBAL__N_116itanium_demangle12OutputBuffer4growEm.exit.i

23:                                               ; preds = %16
  tail call void @abort() #33
  unreachable

_ZN12_GLOBAL__N_116itanium_demangle12OutputBuffer4growEm.exit.i: ; preds = %._ZN12_GLOBAL__N_116itanium_demangle12OutputBuffer4growEm.exit_crit_edge4.i, %._ZN12_GLOBAL__N_116itanium_demangle12OutputBuffer4growEm.exit_crit_edge.i
  %24 = phi i64 [ %11, %._ZN12_GLOBAL__N_116itanium_demangle12OutputBuffer4growEm.exit_crit_edge.i ], [ %.pre5.i, %._ZN12_GLOBAL__N_116itanium_demangle12OutputBuffer4growEm.exit_crit_edge4.i ]
  %25 = phi ptr [ %.pre.i, %._ZN12_GLOBAL__N_116itanium_demangle12OutputBuffer4growEm.exit_crit_edge.i ], [ %21, %._ZN12_GLOBAL__N_116itanium_demangle12OutputBuffer4growEm.exit_crit_edge4.i ]
  %26 = getelementptr inbounds nuw i8, ptr %25, i64 %24
  tail call void @llvm.memcpy.p0.p0.i64(ptr align 1 %26, ptr readonly align 1 %.sroa.0.0.copyload, i64 %.sroa.2.0.copyload, i1 false)
  %27 = load i64, ptr %10, align 8, !tbaa !224
  %28 = add i64 %27, %.sroa.2.0.copyload
  store i64 %28, ptr %10, align 8, !tbaa !224
  br label %_ZN12_GLOBAL__N_116itanium_demangle12OutputBufferpLENSt3__117basic_string_viewIcNS2_11char_traitsIcEEEE.exit

_ZN12_GLOBAL__N_116itanium_demangle12OutputBufferpLENSt3__117basic_string_viewIcNS2_11char_traitsIcEEEE.exit: ; preds = %2, %_ZN12_GLOBAL__N_116itanium_demangle12OutputBuffer4growEm.exit.i
  ret void
}